; Function Attrs: nounwind uwtable
define ptr @l_Lean_Compiler_LCNF_normLetDecl___at_Lean_Compiler_LCNF_Code_cse_go___spec__1___boxed(ptr noundef %0, ptr noundef %1, ptr noundef %2, ptr noundef %3, ptr noundef %4, ptr noundef %5, ptr noundef %6, ptr noundef %7) local_unnamed_addr #1 {
  %9 = ptrtoint ptr %0 to i64
  %10 = lshr i64 %9, 1
  %11 = trunc i64 %10 to i8
  %12 = and i64 %9, 1
  %.not = icmp eq i64 %12, 0
  br i1 %.not, label %13, label %lean_dec.exit19

13:                                               ; preds = %8
  %14 = load i32, ptr %0, align 4, !tbaa !4
  %15 = icmp sgt i32 %14, 1
  br i1 %15, label %16, label %18, !prof !11

16:                                               ; preds = %13
  %17 = add nsw i32 %14, -1
  store i32 %17, ptr %0, align 4, !tbaa !4
  br label %lean_dec.exit19

18:                                               ; preds = %13
  %.not.i = icmp eq i32 %14, 0
  br i1 %.not.i, label %lean_dec.exit19, label %19

19:                                               ; preds = %18
  tail call void @lean_dec_ref_cold(ptr noundef nonnull %0) #4
  br label %lean_dec.exit19

lean_dec.exit19:                                  ; preds = %19, %18, %16, %8
  %20 = tail call ptr @l_Lean_Compiler_LCNF_normLetDecl___at_Lean_Compiler_LCNF_Code_cse_go___spec__1(i8 noundef zeroext %11, ptr noundef %1, ptr noundef %2, ptr noundef %3, ptr noundef %4, ptr noundef %5, ptr noundef %6, ptr noundef %7)
  %21 = ptrtoint ptr %6 to i64
  %22 = and i64 %21, 1
  %.not30 = icmp eq i64 %22, 0
  br i1 %.not30, label %23, label %lean_dec.exit18

23:                                               ; preds = %lean_dec.exit19
  %24 = load i32, ptr %6, align 4, !tbaa !4
  %25 = icmp sgt i32 %24, 1
  br i1 %25, label %26, label %28, !prof !11

26:                                               ; preds = %23
  %27 = add nsw i32 %24, -1
  store i32 %27, ptr %6, align 4, !tbaa !4
  br label %lean_dec.exit18

28:                                               ; preds = %23
  %.not.i20 = icmp eq i32 %24, 0
  br i1 %.not.i20, label %lean_dec.exit18, label %29

29:                                               ; preds = %28
  tail call void @lean_dec_ref_cold(ptr noundef nonnull %6) #4
  br label %lean_dec.exit18

lean_dec.exit18:                                  ; preds = %29, %28, %26, %lean_dec.exit19
  %30 = ptrtoint ptr %5 to i64
  %31 = and i64 %30, 1
  %.not31 = icmp eq i64 %31, 0
  br i1 %.not31, label %32, label %lean_dec.exit17

32:                                               ; preds = %lean_dec.exit18
  %33 = load i32, ptr %5, align 4, !tbaa !4
  %34 = icmp sgt i32 %33, 1
  br i1 %34, label %35, label %37, !prof !11

35:                                               ; preds = %32
  %36 = add nsw i32 %33, -1
  store i32 %36, ptr %5, align 4, !tbaa !4
  br label %lean_dec.exit17

37:                                               ; preds = %32
  %.not.i22 = icmp eq i32 %33, 0
  br i1 %.not.i22, label %lean_dec.exit17, label %38

38:                                               ; preds = %37
  tail call void @lean_dec_ref_cold(ptr noundef nonnull %5) #4
  br label %lean_dec.exit17

lean_dec.exit17:                                  ; preds = %38, %37, %35, %lean_dec.exit18
  %39 = ptrtoint ptr %4 to i64
  %40 = and i64 %39, 1
  %.not32 = icmp eq i64 %40, 0
  br i1 %.not32, label %41, label %lean_dec.exit16

41:                                               ; preds = %lean_dec.exit17
  %42 = load i32, ptr %4, align 4, !tbaa !4
  %43 = icmp sgt i32 %42, 1
  br i1 %43, label %44, label %46, !prof !11

44:                                               ; preds = %41
  %45 = add nsw i32 %42, -1
  store i32 %45, ptr %4, align 4, !tbaa !4
  br label %lean_dec.exit16

46:                                               ; preds = %41
  %.not.i24 = icmp eq i32 %42, 0
  br i1 %.not.i24, label %lean_dec.exit16, label %47

47:                                               ; preds = %46
  tail call void @lean_dec_ref_cold(ptr noundef nonnull %4) #4
  br label %lean_dec.exit16

lean_dec.exit16:                                  ; preds = %47, %46, %44, %lean_dec.exit17
  %48 = ptrtoint ptr %3 to i64
  %49 = and i64 %48, 1
  %.not33 = icmp eq i64 %49, 0
  br i1 %.not33, label %50, label %lean_dec.exit15

50:                                               ; preds = %lean_dec.exit16
  %51 = load i32, ptr %3, align 4, !tbaa !4
  %52 = icmp sgt i32 %51, 1
  br i1 %52, label %53, label %55, !prof !11

53:                                               ; preds = %50
  %54 = add nsw i32 %51, -1
  store i32 %54, ptr %3, align 4, !tbaa !4
  br label %lean_dec.exit15

55:                                               ; preds = %50
  %.not.i26 = icmp eq i32 %51, 0
  br i1 %.not.i26, label %lean_dec.exit15, label %56

56:                                               ; preds = %55
  tail call void @lean_dec_ref_cold(ptr noundef nonnull %3) #4
  br label %lean_dec.exit15

lean_dec.exit15:                                  ; preds = %56, %55, %53, %lean_dec.exit16
  %57 = ptrtoint ptr %2 to i64
  %58 = and i64 %57, 1
  %.not34 = icmp eq i64 %58, 0
  br i1 %.not34, label %59, label %lean_dec.exit

59:                                               ; preds = %lean_dec.exit15
  %60 = load i32, ptr %2, align 4, !tbaa !4
  %61 = icmp sgt i32 %60, 1
  br i1 %61, label %62, label %64, !prof !11

62:                                               ; preds = %59
  %63 = add nsw i32 %60, -1
  store i32 %63, ptr %2, align 4, !tbaa !4
  br label %lean_dec.exit

64:                                               ; preds = %59
  %.not.i28 = icmp eq i32 %60, 0
  br i1 %.not.i28, label %lean_dec.exit, label %65

65:                                               ; preds = %64
  tail call void @lean_dec_ref_cold(ptr noundef nonnull %2) #4
  br label %lean_dec.exit

lean_dec.exit:                                    ; preds = %65, %64, %62, %lean_dec.exit15
  ret ptr %20
}